; Function Attrs: mustprogress uwtable
define void @_ZNK32pxrInternal_v0_24__pxrReserved__26UsdShadeMaterialBindingAPI27_CreateCollectionBindingRelERKNS_7TfTokenES3_(ptr dead_on_unwind noalias writable sret(%"class.pxrInternal_v0_24__pxrReserved__::UsdRelationship") align 8 %0, ptr noundef nonnull align 8 dereferenceable(32) %1, ptr noundef nonnull align 8 dereferenceable(8) %2, ptr nocapture noundef nonnull readonly align 8 dereferenceable(8) %3) local_unnamed_addr #0 align 2 personality ptr @__gxx_personality_v0 {
  %5 = alloca %"class.pxrInternal_v0_24__pxrReserved__::TfToken", align 8
  %6 = alloca %"class.pxrInternal_v0_24__pxrReserved__::UsdPrim", align 8
  call fastcc void @_ZN32pxrInternal_v0_24__pxrReserved__L28_GetCollectionBindingRelNameERKNS_7TfTokenES2_(ptr dead_on_unwind noalias nonnull writable align 8 %5, ptr noundef nonnull align 8 dereferenceable(8) %2, ptr noundef nonnull align 8 dereferenceable(8) %3)
  %7 = getelementptr inbounds nuw i8, ptr %1, i64 8
  %8 = getelementptr inbounds nuw i8, ptr %1, i64 16
  invoke void @_ZN32pxrInternal_v0_24__pxrReserved__9UsdObjectC2ERKNS_18Usd_PrimDataHandleERKNS_7SdfPathE(ptr noundef nonnull align 8 dereferenceable(32) %6, ptr noundef nonnull align 8 dereferenceable(8) %7, ptr noundef nonnull align 4 dereferenceable(8) %8)
          to label %_ZNK32pxrInternal_v0_24__pxrReserved__13UsdSchemaBase7GetPrimEv.exit unwind label %50

_ZNK32pxrInternal_v0_24__pxrReserved__13UsdSchemaBase7GetPrimEv.exit: ; preds = %4
  invoke void @_ZNK32pxrInternal_v0_24__pxrReserved__7UsdPrim18CreateRelationshipERKNS_7TfTokenEb(ptr dead_on_unwind writable sret(%"class.pxrInternal_v0_24__pxrReserved__::UsdRelationship") align 8 %0, ptr noundef nonnull align 8 dereferenceable(32) %6, ptr noundef nonnull align 8 dereferenceable(8) %5, i1 noundef zeroext false)
          to label %9 unwind label %52

9:                                                ; preds = %_ZNK32pxrInternal_v0_24__pxrReserved__13UsdSchemaBase7GetPrimEv.exit
  %10 = getelementptr inbounds nuw i8, ptr %6, i64 24
  %11 = load ptr, ptr %10, align 8
  %12 = ptrtoint ptr %11 to i64
  %13 = and i64 %12, 7
  %.not.i.i.i.i = icmp eq i64 %13, 0
  br i1 %.not.i.i.i.i, label %_ZN32pxrInternal_v0_24__pxrReserved__7TfTokenD2Ev.exit.i.i, label %14

14:                                               ; preds = %9
  %15 = and i64 %12, -8
  %16 = inttoptr i64 %15 to ptr
  %17 = atomicrmw sub ptr %16, i32 2 release, align 4
  br label %_ZN32pxrInternal_v0_24__pxrReserved__7TfTokenD2Ev.exit.i.i

_ZN32pxrInternal_v0_24__pxrReserved__7TfTokenD2Ev.exit.i.i: ; preds = %14, %9
  %18 = getelementptr inbounds nuw i8, ptr %6, i64 16
  %19 = load i32, ptr %18, align 8
  %.not.i.i1.i.i = icmp eq i32 %19, 0
  br i1 %.not.i.i1.i.i, label %_ZN32pxrInternal_v0_24__pxrReserved__7SdfPathD2Ev.exit.i.i, label %20

20:                                               ; preds = %_ZN32pxrInternal_v0_24__pxrReserved__7TfTokenD2Ev.exit.i.i
  %21 = and i32 %19, 255
  %22 = lshr i32 %19, 8
  %23 = zext nneg i32 %21 to i64
  %24 = getelementptr inbounds [257 x ptr], ptr @_ZN32pxrInternal_v0_24__pxrReserved__8Sdf_PoolINS_15Sdf_PathPrimTagELj24ELj8ELj16384EE13_regionStartsE, i64 0, i64 %23
  %25 = load ptr, ptr %24, align 8
  %26 = mul nuw nsw i32 %22, 24
  %27 = zext nneg i32 %26 to i64
  %28 = getelementptr inbounds i8, ptr %25, i64 %27
  %29 = getelementptr inbounds nuw i8, ptr %28, i64 8
  %30 = atomicrmw sub ptr %29, i32 1 seq_cst, align 4
  %31 = and i32 %30, 2147483647
  %32 = icmp eq i32 %31, 1
  br i1 %32, label %33, label %_ZN32pxrInternal_v0_24__pxrReserved__7SdfPathD2Ev.exit.i.i

33:                                               ; preds = %20
  invoke void @_ZNK32pxrInternal_v0_24__pxrReserved__12Sdf_PathNode8_DestroyEv(ptr noundef nonnull align 8 dereferenceable(16) %28)
          to label %_ZN32pxrInternal_v0_24__pxrReserved__7SdfPathD2Ev.exit.i.i unwind label %34

34:                                               ; preds = %33
  %35 = landingpad { ptr, i32 }
          catch ptr null
  %36 = extractvalue { ptr, i32 } %35, 0
  call void @__clang_call_terminate(ptr %36) #23
  unreachable

_ZN32pxrInternal_v0_24__pxrReserved__7SdfPathD2Ev.exit.i.i: ; preds = %33, %20, %_ZN32pxrInternal_v0_24__pxrReserved__7TfTokenD2Ev.exit.i.i
  %37 = getelementptr inbounds nuw i8, ptr %6, i64 8
  %38 = load ptr, ptr %37, align 8
  %.not.i.i.i.i.i = icmp eq ptr %38, null
  br i1 %.not.i.i.i.i.i, label %_ZN32pxrInternal_v0_24__pxrReserved__7UsdPrimD2Ev.exit, label %39

39:                                               ; preds = %_ZN32pxrInternal_v0_24__pxrReserved__7SdfPathD2Ev.exit.i.i
  %40 = getelementptr inbounds nuw i8, ptr %38, i64 48
  %41 = atomicrmw sub ptr %40, i64 1 release, align 8
  %.not1.i.i.i.i.i = icmp eq i64 %41, 1
  br i1 %.not1.i.i.i.i.i, label %42, label %_ZN32pxrInternal_v0_24__pxrReserved__7UsdPrimD2Ev.exit

42:                                               ; preds = %39
  call void @_ZN32pxrInternal_v0_24__pxrReserved__12Usd_PrimDataD1Ev(ptr noundef nonnull align 8 dereferenceable(64) %38) #21
  call void @_ZdlPvm(ptr noundef nonnull %38, i64 noundef 64) #22
  br label %_ZN32pxrInternal_v0_24__pxrReserved__7UsdPrimD2Ev.exit

_ZN32pxrInternal_v0_24__pxrReserved__7UsdPrimD2Ev.exit: ; preds = %_ZN32pxrInternal_v0_24__pxrReserved__7SdfPathD2Ev.exit.i.i, %39, %42
  %43 = load ptr, ptr %5, align 8
  %44 = ptrtoint ptr %43 to i64
  %45 = and i64 %44, 7
  %.not.i.i = icmp eq i64 %45, 0
  br i1 %.not.i.i, label %_ZN32pxrInternal_v0_24__pxrReserved__7TfTokenD2Ev.exit, label %46

46:                                               ; preds = %_ZN32pxrInternal_v0_24__pxrReserved__7UsdPrimD2Ev.exit
  %47 = and i64 %44, -8
  %48 = inttoptr i64 %47 to ptr
  %49 = atomicrmw sub ptr %48, i32 2 release, align 4
  br label %_ZN32pxrInternal_v0_24__pxrReserved__7TfTokenD2Ev.exit

_ZN32pxrInternal_v0_24__pxrReserved__7TfTokenD2Ev.exit: ; preds = %_ZN32pxrInternal_v0_24__pxrReserved__7UsdPrimD2Ev.exit, %46
  ret void

50:                                               ; preds = %4
  %51 = landingpad { ptr, i32 }
          cleanup
  br label %54

52:                                               ; preds = %_ZNK32pxrInternal_v0_24__pxrReserved__13UsdSchemaBase7GetPrimEv.exit
  %53 = landingpad { ptr, i32 }
          cleanup
  call void @_ZN32pxrInternal_v0_24__pxrReserved__7UsdPrimD2Ev(ptr noundef nonnull align 8 dereferenceable(32) %6) #21
  br label %54

54:                                               ; preds = %52, %50
  %.pn = phi { ptr, i32 } [ %53, %52 ], [ %51, %50 ]
  %55 = load ptr, ptr %5, align 8
  %56 = ptrtoint ptr %55 to i64
  %57 = and i64 %56, 7
  %.not.i.i6 = icmp eq i64 %57, 0
  br i1 %.not.i.i6, label %_ZN32pxrInternal_v0_24__pxrReserved__7TfTokenD2Ev.exit7, label %58

58:                                               ; preds = %54
  %59 = and i64 %56, -8
  %60 = inttoptr i64 %59 to ptr
  %61 = atomicrmw sub ptr %60, i32 2 release, align 4
  br label %_ZN32pxrInternal_v0_24__pxrReserved__7TfTokenD2Ev.exit7

_ZN32pxrInternal_v0_24__pxrReserved__7TfTokenD2Ev.exit7: ; preds = %54, %58
  resume { ptr, i32 } %.pn
}